; Function Attrs: nounwind uwtable
define internal ptr @test_structmembers_new(ptr noundef %0, ptr noundef %1, ptr noundef %2) #0 {
  %4 = alloca ptr, align 8
  %5 = alloca i64, align 8
  call void @llvm.lifetime.start.p0(i64 8, ptr nonnull %4) #5
  store ptr null, ptr %4, align 8, !tbaa !6
  call void @llvm.lifetime.start.p0(i64 8, ptr nonnull %5) #5
  store i64 0, ptr %5, align 8, !tbaa !9
  %6 = tail call ptr @_PyObject_New(ptr noundef %0) #5
  %7 = icmp eq ptr %6, null
  br i1 %7, label %Py_DECREF.exit30, label %8

8:                                                ; preds = %3
  %9 = getelementptr inbounds nuw i8, ptr %6, i64 16
  tail call void @llvm.memset.p0.i64(ptr noundef nonnull align 8 dereferenceable(88) %9, i8 0, i64 88, i1 false)
  %10 = getelementptr inbounds nuw i8, ptr %6, i64 17
  %11 = getelementptr inbounds nuw i8, ptr %6, i64 18
  %12 = getelementptr inbounds nuw i8, ptr %6, i64 20
  %13 = getelementptr inbounds nuw i8, ptr %6, i64 22
  %14 = getelementptr inbounds nuw i8, ptr %6, i64 24
  %15 = getelementptr inbounds nuw i8, ptr %6, i64 28
  %16 = getelementptr inbounds nuw i8, ptr %6, i64 32
  %17 = getelementptr inbounds nuw i8, ptr %6, i64 40
  %18 = getelementptr inbounds nuw i8, ptr %6, i64 48
  %19 = getelementptr inbounds nuw i8, ptr %6, i64 56
  %20 = getelementptr inbounds nuw i8, ptr %6, i64 64
  %21 = getelementptr inbounds nuw i8, ptr %6, i64 80
  %22 = getelementptr inbounds nuw i8, ptr %6, i64 88
  %23 = getelementptr inbounds nuw i8, ptr %6, i64 96
  %24 = call i32 (ptr, ptr, ptr, ptr, ...) @PyArg_ParseTupleAndKeywords(ptr noundef %1, ptr noundef %2, ptr noundef nonnull @test_structmembers_new.fmt, ptr noundef nonnull @test_structmembers_new.keywords, ptr noundef nonnull %9, ptr noundef nonnull %10, ptr noundef nonnull %11, ptr noundef nonnull %12, ptr noundef nonnull %13, ptr noundef nonnull %14, ptr noundef nonnull %15, ptr noundef nonnull %16, ptr noundef nonnull %17, ptr noundef nonnull %18, ptr noundef nonnull %19, ptr noundef nonnull %20, ptr noundef nonnull %4, ptr noundef nonnull %5, ptr noundef nonnull %21, ptr noundef nonnull %22, ptr noundef nonnull %23) #5
  %.not = icmp eq i32 %24, 0
  br i1 %.not, label %25, label %31

25:                                               ; preds = %8
  %26 = load i32, ptr %6, align 8, !tbaa !3
  %.not.i29 = icmp sgt i32 %26, -1
  br i1 %.not.i29, label %27, label %Py_DECREF.exit30

27:                                               ; preds = %25
  %28 = add nsw i32 %26, -1
  store i32 %28, ptr %6, align 8, !tbaa !3
  %29 = icmp eq i32 %28, 0
  br i1 %29, label %30, label %Py_DECREF.exit30

30:                                               ; preds = %27
  call void @_Py_Dealloc(ptr noundef nonnull %6) #5
  br label %Py_DECREF.exit30

31:                                               ; preds = %8
  %32 = load ptr, ptr %4, align 8, !tbaa !6
  %.not28 = icmp eq ptr %32, null
  br i1 %.not28, label %46, label %33

33:                                               ; preds = %31
  %34 = load i64, ptr %5, align 8, !tbaa !9
  %35 = icmp sgt i64 %34, 5
  br i1 %35, label %36, label %43

36:                                               ; preds = %33
  %37 = load i32, ptr %6, align 8, !tbaa !3
  %.not.i = icmp sgt i32 %37, -1
  br i1 %.not.i, label %38, label %Py_DECREF.exit

38:                                               ; preds = %36
  %39 = add nsw i32 %37, -1
  store i32 %39, ptr %6, align 8, !tbaa !3
  %40 = icmp eq i32 %39, 0
  br i1 %40, label %41, label %Py_DECREF.exit

41:                                               ; preds = %38
  call void @_Py_Dealloc(ptr noundef nonnull %6) #5
  br label %Py_DECREF.exit

Py_DECREF.exit:                                   ; preds = %36, %38, %41
  %42 = load ptr, ptr @PyExc_ValueError, align 8, !tbaa !11
  call void @PyErr_SetString(ptr noundef %42, ptr noundef nonnull @.str.21) #5
  br label %Py_DECREF.exit30

43:                                               ; preds = %33
  %44 = getelementptr inbounds nuw i8, ptr %6, i64 72
  %45 = call ptr @strcpy(ptr noundef nonnull dereferenceable(1) %44, ptr noundef nonnull dereferenceable(1) %32) #5
  br label %Py_DECREF.exit30

46:                                               ; preds = %31
  %47 = getelementptr inbounds nuw i8, ptr %6, i64 72
  store i8 0, ptr %47, align 1
  br label %Py_DECREF.exit30

Py_DECREF.exit30:                                 ; preds = %30, %27, %25, %43, %46, %3, %Py_DECREF.exit
  %.0 = phi ptr [ null, %Py_DECREF.exit ], [ null, %3 ], [ %6, %46 ], [ %6, %43 ], [ null, %25 ], [ null, %27 ], [ null, %30 ]
  call void @llvm.lifetime.end.p0(i64 8, ptr nonnull %5) #5
  call void @llvm.lifetime.end.p0(i64 8, ptr nonnull %4) #5
  ret ptr %.0
}